target datalayout = "e-m:e-p270:32:32-p271:32:32-p272:64:64-i64:64-i128:128-f80:128-n8:16:32:64-S128"
target triple = "x86_64-pc-linux-gnu"

%"struct.open_spiel::GameType" = type <{ %"class.std::__cxx11::basic_string", %"class.std::__cxx11::basic_string", i32, i32, i32, i32, i32, i32, i32, i8, i8, i8, i8, %"class.std::map", i8, i8, [6 x i8] }>
%"class.std::__cxx11::basic_string" = type { %"struct.std::__cxx11::basic_string<char>::_Alloc_hider", i64, %union.anon }
%"struct.std::__cxx11::basic_string<char>::_Alloc_hider" = type { ptr }
%union.anon = type { i64, [8 x i8] }
%"class.std::map" = type { %"class.std::_Rb_tree" }
%"class.std::_Rb_tree" = type { %"struct.std::_Rb_tree<std::__cxx11::basic_string<char>, std::pair<const std::__cxx11::basic_string<char>, open_spiel::GameParameter>, std::_Select1st<std::pair<const std::__cxx11::basic_string<char>, open_spiel::GameParameter>>, std::less<std::__cxx11::basic_string<char>>>::_Rb_tree_impl" }
%"struct.std::_Rb_tree<std::__cxx11::basic_string<char>, std::pair<const std::__cxx11::basic_string<char>, open_spiel::GameParameter>, std::_Select1st<std::pair<const std::__cxx11::basic_string<char>, open_spiel::GameParameter>>, std::less<std::__cxx11::basic_string<char>>>::_Rb_tree_impl" = type { [8 x i8], %"struct.std::_Rb_tree_header" }
%"struct.std::_Rb_tree_header" = type { %"struct.std::_Rb_tree_node_base", i64 }
%"struct.std::_Rb_tree_node_base" = type { i32, ptr, ptr, ptr }
%"class.std::vector.9" = type { %"struct.std::_Vector_base.10" }
%"struct.std::_Vector_base.10" = type { %"struct.std::_Vector_base<std::__cxx11::basic_string<char>, std::allocator<std::__cxx11::basic_string<char>>>::_Vector_impl" }
%"struct.std::_Vector_base<std::__cxx11::basic_string<char>, std::allocator<std::__cxx11::basic_string<char>>>::_Vector_impl" = type { %"struct.std::_Vector_base<std::__cxx11::basic_string<char>, std::allocator<std::__cxx11::basic_string<char>>>::_Vector_impl_data" }
%"struct.std::_Vector_base<std::__cxx11::basic_string<char>, std::allocator<std::__cxx11::basic_string<char>>>::_Vector_impl_data" = type { ptr, ptr, ptr }
%"class.open_spiel::efg_game::EFGGame" = type { %"class.open_spiel::Game", %"class.std::__cxx11::basic_string", %"class.std::__cxx11::basic_string", i32, i32, %"class.std::vector.29", %"class.std::__cxx11::basic_string", %"class.std::__cxx11::basic_string", %"class.std::vector.9", i32, i32, i32, i32, %"class.absl::debian2::optional", %"class.absl::debian2::optional", %"class.absl::debian2::optional", i8, i8, i8, i8, %"class.std::vector.35", %"class.absl::debian2::flat_hash_map", %"class.absl::debian2::flat_hash_map.48", %"class.absl::debian2::flat_hash_map.59", %"class.absl::debian2::flat_hash_map.59" }
%"class.open_spiel::Game" = type { ptr, %"class.std::enable_shared_from_this", %"struct.open_spiel::GameType", %"class.std::map", %"class.std::map", %"class.absl::debian2::Mutex" }
%"class.std::enable_shared_from_this" = type { %"class.std::weak_ptr" }
%"class.std::weak_ptr" = type { %"class.std::__weak_ptr" }
%"class.std::__weak_ptr" = type { ptr, %"class.std::__weak_count" }
%"class.std::__weak_count" = type { ptr }
%"class.absl::debian2::Mutex" = type { %"struct.std::atomic" }
%"struct.std::atomic" = type { %"struct.std::__atomic_base" }
%"struct.std::__atomic_base" = type { i64 }
%"class.std::vector.29" = type { %"struct.std::_Vector_base.30" }
%"struct.std::_Vector_base.30" = type { %"struct.std::_Vector_base<std::unique_ptr<open_spiel::efg_game::Node>, std::allocator<std::unique_ptr<open_spiel::efg_game::Node>>>::_Vector_impl" }
%"struct.std::_Vector_base<std::unique_ptr<open_spiel::efg_game::Node>, std::allocator<std::unique_ptr<open_spiel::efg_game::Node>>>::_Vector_impl" = type { %"struct.std::_Vector_base<std::unique_ptr<open_spiel::efg_game::Node>, std::allocator<std::unique_ptr<open_spiel::efg_game::Node>>>::_Vector_impl_data" }
%"struct.std::_Vector_base<std::unique_ptr<open_spiel::efg_game::Node>, std::allocator<std::unique_ptr<open_spiel::efg_game::Node>>>::_Vector_impl_data" = type { ptr, ptr, ptr }
%"class.absl::debian2::optional" = type { %"class.absl::debian2::optional_internal::optional_data" }
%"class.absl::debian2::optional_internal::optional_data" = type { %"class.absl::debian2::optional_internal::optional_data_base" }
%"class.absl::debian2::optional_internal::optional_data_base" = type { %"class.absl::debian2::optional_internal::optional_data_dtor_base" }
%"class.absl::debian2::optional_internal::optional_data_dtor_base" = type { i8, %union.anon.34 }
%union.anon.34 = type { double }
%"class.std::vector.35" = type { %"struct.std::_Vector_base.36" }
%"struct.std::_Vector_base.36" = type { %"struct.std::_Vector_base<absl::debian2::flat_hash_map<int, int>, std::allocator<absl::debian2::flat_hash_map<int, int>>>::_Vector_impl" }
%"struct.std::_Vector_base<absl::debian2::flat_hash_map<int, int>, std::allocator<absl::debian2::flat_hash_map<int, int>>>::_Vector_impl" = type { %"struct.std::_Vector_base<absl::debian2::flat_hash_map<int, int>, std::allocator<absl::debian2::flat_hash_map<int, int>>>::_Vector_impl_data" }
%"struct.std::_Vector_base<absl::debian2::flat_hash_map<int, int>, std::allocator<absl::debian2::flat_hash_map<int, int>>>::_Vector_impl_data" = type { ptr, ptr, ptr }
%"class.absl::debian2::flat_hash_map" = type { %"class.absl::debian2::container_internal::raw_hash_map" }
%"class.absl::debian2::container_internal::raw_hash_map" = type { %"class.absl::debian2::container_internal::raw_hash_set" }
%"class.absl::debian2::container_internal::raw_hash_set" = type { ptr, ptr, i64, i64, %"class.absl::debian2::container_internal::CompressedTuple" }
%"class.absl::debian2::container_internal::CompressedTuple" = type { %"struct.absl::debian2::container_internal::internal_compressed_tuple::CompressedTupleImpl" }
%"struct.absl::debian2::container_internal::internal_compressed_tuple::CompressedTupleImpl" = type { %"struct.absl::debian2::container_internal::internal_compressed_tuple::Storage" }
%"struct.absl::debian2::container_internal::internal_compressed_tuple::Storage" = type { i64 }
%"class.absl::debian2::flat_hash_map.48" = type { %"class.absl::debian2::container_internal::raw_hash_map.49" }
%"class.absl::debian2::container_internal::raw_hash_map.49" = type { %"class.absl::debian2::container_internal::raw_hash_set.50" }
%"class.absl::debian2::container_internal::raw_hash_set.50" = type { ptr, ptr, i64, i64, %"class.absl::debian2::container_internal::CompressedTuple.51" }
%"class.absl::debian2::container_internal::CompressedTuple.51" = type { %"struct.absl::debian2::container_internal::internal_compressed_tuple::CompressedTupleImpl.52" }
%"struct.absl::debian2::container_internal::internal_compressed_tuple::CompressedTupleImpl.52" = type { %"struct.absl::debian2::container_internal::internal_compressed_tuple::Storage" }
%"class.absl::debian2::flat_hash_map.59" = type { %"class.absl::debian2::container_internal::raw_hash_map.60" }
%"class.absl::debian2::container_internal::raw_hash_map.60" = type { %"class.absl::debian2::container_internal::raw_hash_set.61" }
%"class.absl::debian2::container_internal::raw_hash_set.61" = type { ptr, ptr, i64, i64, %"class.absl::debian2::container_internal::CompressedTuple.62" }
%"class.absl::debian2::container_internal::CompressedTuple.62" = type { %"struct.absl::debian2::container_internal::internal_compressed_tuple::CompressedTupleImpl.63" }
%"struct.absl::debian2::container_internal::internal_compressed_tuple::CompressedTupleImpl.63" = type { %"struct.absl::debian2::container_internal::internal_compressed_tuple::Storage" }
%"struct.absl::debian2::optional_internal::optional_data_dtor_base<double>::dummy_type" = type { [8 x %"struct.absl::debian2::optional_internal::empty_struct"] }
%"struct.absl::debian2::optional_internal::empty_struct" = type { i8 }

; Function Attrs: mustprogress nounwind uwtable
define linkonce_odr void @_ZN4absl7debian217optional_internal23optional_data_dtor_baseIdLb1EEC2Ev(ptr noundef nonnull align 8 dereferenceable(16) %0) unnamed_addr #5 comdat align 2 {
  %2 = alloca ptr, align 8
  store ptr %0, ptr %2, align 8
  %3 = load ptr, ptr %2, align 8
  %4 = getelementptr inbounds nuw %"class.absl::debian2::optional_internal::optional_data_dtor_base", ptr %3, i32 0, i32 0
  store i8 0, ptr %4, align 8
  %5 = getelementptr inbounds nuw %"class.absl::debian2::optional_internal::optional_data_dtor_base", ptr %3, i32 0, i32 1
  %6 = getelementptr inbounds nuw %"struct.absl::debian2::optional_internal::optional_data_dtor_base<double>::dummy_type", ptr %5, i32 0, i32 0
  %7 = getelementptr inbounds %"struct.absl::debian2::optional_internal::empty_struct", ptr %6, i64 8
  br label %8

8:                                                ; preds = %8, %1
  %9 = phi ptr [ %6, %1 ], [ %10, %8 ]
  %10 = getelementptr inbounds %"struct.absl::debian2::optional_internal::empty_struct", ptr %9, i64 1
  %11 = icmp eq ptr %10, %7
  br i1 %11, label %12, label %8

12:                                               ; preds = %8
  ret void
}

; Function Attrs: mustprogress nounwind uwtable
define linkonce_odr void @_ZN4absl7debian217optional_internal18optional_data_baseIdEC2Ev(ptr noundef nonnull align 8 dereferenceable(16) %0) unnamed_addr #5 comdat align 2 {
  %2 = alloca ptr, align 8
  store ptr %0, ptr %2, align 8
  %3 = load ptr, ptr %2, align 8
  call void @_ZN4absl7debian217optional_internal23optional_data_dtor_baseIdLb1EEC2Ev(ptr noundef nonnull align 8 dereferenceable(16) %3) #3
  ret void
}

; Function Attrs: mustprogress nounwind uwtable
define linkonce_odr void @_ZN4absl7debian217optional_internal13optional_dataIdLb1EEC2Ev(ptr noundef nonnull align 8 dereferenceable(16) %0) unnamed_addr #5 comdat align 2 {
  %2 = alloca ptr, align 8
  store ptr %0, ptr %2, align 8
  %3 = load ptr, ptr %2, align 8
  call void @_ZN4absl7debian217optional_internal18optional_data_baseIdEC2Ev(ptr noundef nonnull align 8 dereferenceable(16) %3) #3
  ret void
}

; Function Attrs: mustprogress nounwind uwtable
define linkonce_odr void @_ZN4absl7debian28optionalIdEC2ENS0_9nullopt_tE(ptr noundef nonnull align 8 dereferenceable(16) %0) unnamed_addr #5 comdat align 2 {
  %2 = alloca ptr, align 8
  store ptr %0, ptr %2, align 8
  %3 = load ptr, ptr %2, align 8
  call void @_ZN4absl7debian217optional_internal13optional_dataIdLb1EEC2Ev(ptr noundef nonnull align 8 dereferenceable(16) %3) #3
  ret void
}

; Function Attrs: mustprogress nounwind uwtable
define { i8, double } @_ZNK10open_spiel8efg_game7EFGGame10UtilitySumEv(ptr noundef nonnull align 8 dereferenceable(720) %0) unnamed_addr #5 align 2 {
  %2 = alloca %"class.absl::debian2::optional", align 8
  %3 = alloca ptr, align 8
  store ptr %0, ptr %3, align 8
  %4 = load ptr, ptr %3, align 8
  %5 = getelementptr inbounds nuw %"class.open_spiel::efg_game::EFGGame", ptr %4, i32 0, i32 16
  %6 = load i8, ptr %5, align 8
  %7 = trunc i8 %6 to i1
  br i1 %7, label %8, label %10

8:                                                ; preds = %1
  %9 = getelementptr inbounds nuw %"class.open_spiel::efg_game::EFGGame", ptr %4, i32 0, i32 13
  call void @llvm.memcpy.p0.p0.i64(ptr align 8 %2, ptr align 8 %9, i64 16, i1 false)
  br label %11

10:                                               ; preds = %1
  call void @_ZN4absl7debian28optionalIdEC2ENS0_9nullopt_tE(ptr noundef nonnull align 8 dereferenceable(16) %2) #3
  br label %11

11:                                               ; preds = %10, %8
  %12 = getelementptr inbounds nuw %"class.absl::debian2::optional", ptr %2, i32 0, i32 0
  %13 = getelementptr inbounds nuw %"class.absl::debian2::optional_internal::optional_data", ptr %12, i32 0, i32 0
  %14 = getelementptr inbounds nuw %"class.absl::debian2::optional_internal::optional_data_base", ptr %13, i32 0, i32 0
  %15 = load { i8, double }, ptr %14, align 8
  ret { i8, double } %15
}