; Function Attrs: mustprogress nofree norecurse nosync nounwind willreturn memory(argmem: read) uwtable
define { i8, double } @_ZNK10open_spiel8efg_game7EFGGame10UtilitySumEv(ptr noundef nonnull readonly align 8 captures(none) dereferenceable(720) %0) unnamed_addr #9 align 2 {
  %2 = getelementptr inbounds nuw i8, ptr %0, i64 528
  %3 = load i8, ptr %2, align 8
  %4 = trunc i8 %3 to i1
  %5 = getelementptr inbounds nuw i8, ptr %0, i64 480
  %.sroa.0.0.copyload = load i8, ptr %5, align 8
  %.sroa.31.0..sroa_idx = getelementptr inbounds nuw i8, ptr %0, i64 488
  %.sroa.31.0.copyload = load double, ptr %.sroa.31.0..sroa_idx, align 8
  %.sroa.31.0 = select i1 %4, double %.sroa.31.0.copyload, double undef
  %.sroa.0.0 = select i1 %4, i8 %.sroa.0.0.copyload, i8 0
  %.fca.0.insert = insertvalue { i8, double } poison, i8 %.sroa.0.0, 0
  %.fca.1.insert = insertvalue { i8, double } %.fca.0.insert, double %.sroa.31.0, 1
  ret { i8, double } %.fca.1.insert
}